; Function Attrs: mustprogress uwtable
define hidden noundef ptr @_ZNK11cmd_context2ppEP4sort(ptr noundef nonnull align 8 dereferenceable(872) %this, ptr noundef %s) local_unnamed_addr #4 align 2 {
entry:
  %m_pp_env.i = getelementptr inbounds i8, ptr %this, i64 864
  %0 = load ptr, ptr %m_pp_env.i, align 8
  %cmp.i = icmp eq ptr %0, null
  br i1 %cmp.i, label %if.then.i, label %_ZNK11cmd_context10get_pp_envEv.exit

if.then.i:                                        ; preds = %entry
  %call2.i = tail call noalias noundef ptr @_ZN6memory8allocateEm(i64 noundef 640)
  tail call void @_ZN11cmd_context6pp_envC2ERS_(ptr noundef nonnull align 8 dereferenceable(640) %call2.i, ptr noundef nonnull align 8 dereferenceable(872) %this)
  %1 = load ptr, ptr %m_pp_env.i, align 8
  %cmp.not.i.i = icmp eq ptr %1, %call2.i
  br i1 %cmp.not.i.i, label %_ZNK11cmd_context10get_pp_envEv.exit, label %if.then.i.i

if.then.i.i:                                      ; preds = %if.then.i
  %cmp.i.i.i = icmp eq ptr %1, null
  br i1 %cmp.i.i.i, label %_Z7deallocIN11cmd_context6pp_envEEvPT_.exit.i.i, label %if.end.i.i.i

if.end.i.i.i:                                     ; preds = %if.then.i.i
  %vtable.i.i.i = load ptr, ptr %1, align 8
  %2 = load ptr, ptr %vtable.i.i.i, align 8
  tail call void %2(ptr noundef nonnull align 8 dereferenceable(640) %1) #25
  tail call void @_ZN6memory10deallocateEPv(ptr noundef nonnull %1)
  br label %_Z7deallocIN11cmd_context6pp_envEEvPT_.exit.i.i

_Z7deallocIN11cmd_context6pp_envEEvPT_.exit.i.i:  ; preds = %if.end.i.i.i, %if.then.i.i
  store ptr %call2.i, ptr %m_pp_env.i, align 8
  br label %_ZNK11cmd_context10get_pp_envEv.exit

_ZNK11cmd_context10get_pp_envEv.exit:             ; preds = %entry, %if.then.i, %_Z7deallocIN11cmd_context6pp_envEEvPT_.exit.i.i
  %3 = phi ptr [ %call2.i, %_Z7deallocIN11cmd_context6pp_envEEvPT_.exit.i.i ], [ %call2.i, %if.then.i ], [ %0, %entry ]
  %vtable = load ptr, ptr %3, align 8
  %vfn = getelementptr inbounds i8, ptr %vtable, i64 136
  %4 = load ptr, ptr %vfn, align 8
  %call2 = tail call noundef ptr %4(ptr noundef nonnull align 8 dereferenceable(640) %3, ptr noundef %s)
  ret ptr %call2
}